target datalayout = "e-m:e-p270:32:32-p271:32:32-p272:64:64-i64:64-i128:128-f80:128-n8:16:32:64-S128"
target triple = "x86_64-pc-linux-gnu"

%struct.hwloc_ps_process = type { i64, [64 x i8], [1024 x i8], ptr, i64, i32, i32, i32, ptr }

@.str.15 = private unnamed_addr constant [2 x i8] c"r\00", align 1
@.str.18 = private unnamed_addr constant [18 x i8] c"/proc/%ld/environ\00", align 1

; Function Attrs: nounwind uwtable
define internal i32 @hwloc_ps_pidcmd__from_env(ptr noundef %0, ptr noundef %1, i64 noundef %2, ptr noundef %3) #0 {
  %5 = alloca i32, align 4
  %6 = alloca ptr, align 8
  %7 = alloca ptr, align 8
  %8 = alloca i64, align 8
  %9 = alloca ptr, align 8
  %10 = alloca ptr, align 8
  %11 = alloca i64, align 8
  %12 = alloca i32, align 4
  store ptr %0, ptr %6, align 8, !tbaa !10
  store ptr %1, ptr %7, align 8, !tbaa !19
  store i64 %2, ptr %8, align 8, !tbaa !12
  store ptr %3, ptr %9, align 8, !tbaa !19
  call void @llvm.lifetime.start.p0(i64 8, ptr %10) #10
  %13 = load ptr, ptr %9, align 8, !tbaa !19
  store ptr %13, ptr %10, align 8, !tbaa !19
  br label %14

14:                                               ; preds = %42, %4
  %15 = load ptr, ptr %10, align 8, !tbaa !19
  %16 = load i8, ptr %15, align 1, !tbaa !21
  %17 = icmp ne i8 %16, 0
  br i1 %17, label %18, label %43

18:                                               ; preds = %14
  call void @llvm.lifetime.start.p0(i64 8, ptr %11) #10
  %19 = load ptr, ptr %10, align 8, !tbaa !19
  %20 = load ptr, ptr %7, align 8, !tbaa !19
  %21 = load i64, ptr %8, align 8, !tbaa !12
  %22 = call i32 @strncmp(ptr noundef %19, ptr noundef %20, i64 noundef %21) #12
  %23 = icmp ne i32 %22, 0
  br i1 %23, label %33, label %24

24:                                               ; preds = %18
  %25 = load ptr, ptr %6, align 8, !tbaa !10
  %26 = getelementptr inbounds nuw %struct.hwloc_ps_process, ptr %25, i32 0, i32 2
  %27 = getelementptr inbounds [1024 x i8], ptr %26, i64 0, i64 0
  %28 = load ptr, ptr %10, align 8, !tbaa !19
  %29 = call ptr @strncpy(ptr noundef %27, ptr noundef %28, i64 noundef 1024) #10
  %30 = load ptr, ptr %6, align 8, !tbaa !10
  %31 = getelementptr inbounds nuw %struct.hwloc_ps_process, ptr %30, i32 0, i32 2
  %32 = getelementptr inbounds nuw [1024 x i8], ptr %31, i64 0, i64 1023
  store i8 0, ptr %32, align 1, !tbaa !21
  store i32 0, ptr %5, align 4
  store i32 1, ptr %12, align 4
  br label %40

33:                                               ; preds = %18
  %34 = load ptr, ptr %10, align 8, !tbaa !19
  %35 = call i64 @strlen(ptr noundef %34) #12
  store i64 %35, ptr %11, align 8, !tbaa !12
  %36 = load i64, ptr %11, align 8, !tbaa !12
  %37 = add i64 %36, 1
  %38 = load ptr, ptr %10, align 8, !tbaa !19
  %39 = getelementptr inbounds nuw i8, ptr %38, i64 %37
  store ptr %39, ptr %10, align 8, !tbaa !19
  store i32 0, ptr %12, align 4
  br label %40

40:                                               ; preds = %33, %24
  call void @llvm.lifetime.end.p0(i64 8, ptr %11) #10
  %41 = load i32, ptr %12, align 4
  switch i32 %41, label %44 [
    i32 0, label %42
  ]

42:                                               ; preds = %40
  br label %14, !llvm.loop !50

43:                                               ; preds = %14
  store i32 -1, ptr %5, align 4
  store i32 1, ptr %12, align 4
  br label %44

44:                                               ; preds = %43, %40
  call void @llvm.lifetime.end.p0(i64 8, ptr %10) #10
  %45 = load i32, ptr %5, align 4
  ret i32 %45
}

; Function Attrs: nounwind uwtable
define internal void @hwloc_ps_pidcmd_from_env(ptr noundef %0, i32 noundef %1, ptr noundef %2) #0 {
  %4 = alloca ptr, align 8
  %5 = alloca i32, align 4
  %6 = alloca ptr, align 8
  %7 = alloca [64 x i8], align 16
  %8 = alloca [65536 x i8], align 16
  %9 = alloca ptr, align 8
  %10 = alloca i64, align 8
  %11 = alloca i32, align 4
  %12 = alloca i32, align 4
  store ptr %0, ptr %4, align 8, !tbaa !10
  store i32 %1, ptr %5, align 4, !tbaa !18
  store ptr %2, ptr %6, align 8, !tbaa !43
  call void @llvm.lifetime.start.p0(i64 64, ptr %7) #10
  call void @llvm.lifetime.start.p0(i64 65536, ptr %8) #10
  call void @llvm.lifetime.start.p0(i64 8, ptr %9) #10
  call void @llvm.lifetime.start.p0(i64 8, ptr %10) #10
  call void @llvm.lifetime.start.p0(i64 4, ptr %11) #10
  %13 = getelementptr inbounds [64 x i8], ptr %7, i64 0, i64 0
  %14 = load ptr, ptr %4, align 8, !tbaa !10
  %15 = getelementptr inbounds nuw %struct.hwloc_ps_process, ptr %14, i32 0, i32 0
  %16 = load i64, ptr %15, align 8, !tbaa !14
  %17 = call i32 (ptr, i64, ptr, ...) @snprintf(ptr noundef %13, i64 noundef 64, ptr noundef @.str.18, i64 noundef %16) #10
  %18 = getelementptr inbounds [64 x i8], ptr %7, i64 0, i64 0
  %19 = call noalias ptr @fopen(ptr noundef %18, ptr noundef @.str.15)
  store ptr %19, ptr %9, align 8, !tbaa !41
  %20 = load ptr, ptr %9, align 8, !tbaa !41
  %21 = icmp ne ptr %20, null
  br i1 %21, label %23, label %22

22:                                               ; preds = %3
  store i32 1, ptr %12, align 4
  br label %64

23:                                               ; preds = %3
  %24 = getelementptr inbounds [65536 x i8], ptr %8, i64 0, i64 0
  %25 = load ptr, ptr %9, align 8, !tbaa !41
  %26 = call i64 @fread(ptr noundef %24, i64 noundef 1, i64 noundef 65534, ptr noundef %25)
  store i64 %26, ptr %10, align 8, !tbaa !12
  %27 = load ptr, ptr %9, align 8, !tbaa !41
  %28 = call i32 @fclose(ptr noundef %27)
  %29 = load i64, ptr %10, align 8, !tbaa !12
  %30 = icmp ne i64 %29, 0
  br i1 %30, label %32, label %31

31:                                               ; preds = %23
  store i32 1, ptr %12, align 4
  br label %64

32:                                               ; preds = %23
  %33 = load i64, ptr %10, align 8, !tbaa !12
  %34 = getelementptr inbounds nuw [65536 x i8], ptr %8, i64 0, i64 %33
  store i8 0, ptr %34, align 1, !tbaa !21
  %35 = load i64, ptr %10, align 8, !tbaa !12
  %36 = add i64 %35, 1
  %37 = getelementptr inbounds nuw [65536 x i8], ptr %8, i64 0, i64 %36
  store i8 0, ptr %37, align 1, !tbaa !21
  store i32 0, ptr %11, align 4, !tbaa !18
  br label %38

38:                                               ; preds = %60, %32
  %39 = load i32, ptr %11, align 4, !tbaa !18
  %40 = load i32, ptr %5, align 4, !tbaa !18
  %41 = icmp ult i32 %39, %40
  br i1 %41, label %42, label %63

42:                                               ; preds = %38
  %43 = load ptr, ptr %4, align 8, !tbaa !10
  %44 = load ptr, ptr %6, align 8, !tbaa !43
  %45 = load i32, ptr %11, align 4, !tbaa !18
  %46 = zext i32 %45 to i64
  %47 = getelementptr inbounds nuw ptr, ptr %44, i64 %46
  %48 = load ptr, ptr %47, align 8, !tbaa !19
  %49 = load ptr, ptr %6, align 8, !tbaa !43
  %50 = load i32, ptr %11, align 4, !tbaa !18
  %51 = zext i32 %50 to i64
  %52 = getelementptr inbounds nuw ptr, ptr %49, i64 %51
  %53 = load ptr, ptr %52, align 8, !tbaa !19
  %54 = call i64 @strlen(ptr noundef %53) #12
  %55 = getelementptr inbounds [65536 x i8], ptr %8, i64 0, i64 0
  %56 = call i32 @hwloc_ps_pidcmd__from_env(ptr noundef %43, ptr noundef %48, i64 noundef %54, ptr noundef %55)
  %57 = icmp eq i32 %56, 0
  br i1 %57, label %58, label %59

58:                                               ; preds = %42
  store i32 1, ptr %12, align 4
  br label %64

59:                                               ; preds = %42
  br label %60

60:                                               ; preds = %59
  %61 = load i32, ptr %11, align 4, !tbaa !18
  %62 = add i32 %61, 1
  store i32 %62, ptr %11, align 4, !tbaa !18
  br label %38, !llvm.loop !45

63:                                               ; preds = %38
  store i32 0, ptr %12, align 4
  br label %64

64:                                               ; preds = %63, %58, %31, %22
  call void @llvm.lifetime.end.p0(i64 4, ptr %11) #10
  call void @llvm.lifetime.end.p0(i64 8, ptr %10) #10
  call void @llvm.lifetime.end.p0(i64 8, ptr %9) #10
  call void @llvm.lifetime.end.p0(i64 65536, ptr %8) #10
  call void @llvm.lifetime.end.p0(i64 64, ptr %7) #10
  %65 = load i32, ptr %12, align 4
  switch i32 %65, label %67 [
    i32 0, label %66
    i32 1, label %66
  ]

66:                                               ; preds = %64, %64
  ret void

67:                                               ; preds = %64
  unreachable
}