; Function Attrs: nofree nounwind uwtable
define internal fastcc void @hwloc_ps_pidcmd_from_env(ptr noundef %0, i32 noundef range(i32 1, 5) %1, ptr noundef nonnull readonly captures(none) %2) unnamed_addr #13 {
  %4 = alloca [64 x i8], align 16
  %5 = alloca [65536 x i8], align 16
  call void @llvm.lifetime.start.p0(i64 64, ptr nonnull %4) #15
  call void @llvm.lifetime.start.p0(i64 65536, ptr nonnull %5) #15
  %6 = load i64, ptr %0, align 8, !tbaa !3
  %7 = call i32 (ptr, i64, ptr, ...) @snprintf(ptr noundef nonnull dereferenceable(1) %4, i64 noundef 64, ptr noundef nonnull @.str.18, i64 noundef %6) #15
  %8 = call noalias ptr @fopen(ptr noundef nonnull %4, ptr noundef nonnull @.str.15)
  %.not = icmp eq ptr %8, null
  br i1 %.not, label %.loopexit18, label %9

9:                                                ; preds = %3
  %10 = call i64 @fread(ptr noundef nonnull %5, i64 noundef 1, i64 noundef 65534, ptr noundef nonnull %8)
  %11 = tail call i32 @fclose(ptr noundef nonnull %8)
  %.not16 = icmp eq i64 %10, 0
  br i1 %.not16, label %.loopexit18, label %12

12:                                               ; preds = %9
  %13 = getelementptr inbounds nuw [65536 x i8], ptr %5, i64 0, i64 %10
  store i8 0, ptr %13, align 1, !tbaa !12
  %14 = add i64 %10, 1
  %15 = getelementptr inbounds nuw [65536 x i8], ptr %5, i64 0, i64 %14
  store i8 0, ptr %15, align 1, !tbaa !12
  %16 = load i8, ptr %5, align 16, !tbaa !12
  %.not18.i = icmp eq i8 %16, 0
  br i1 %.not18.i, label %.loopexit18, label %.lr.ph.i.preheader.preheader

.lr.ph.i.preheader.preheader:                     ; preds = %12
  %wide.trip.count = zext nneg i32 %1 to i64
  br label %.lr.ph.i.preheader

.lr.ph.i.preheader:                               ; preds = %.lr.ph.i.preheader.preheader, %.loopexit
  %indvars.iv = phi i64 [ 0, %.lr.ph.i.preheader.preheader ], [ %indvars.iv.next, %.loopexit ]
  %17 = getelementptr inbounds nuw ptr, ptr %2, i64 %indvars.iv
  %18 = load ptr, ptr %17, align 8, !tbaa !14
  %19 = tail call i64 @strlen(ptr noundef nonnull dereferenceable(1) %18) #17
  br label %.lr.ph.i

.lr.ph.i:                                         ; preds = %.lr.ph.i.preheader, %21
  %.01319.i = phi ptr [ %24, %21 ], [ %5, %.lr.ph.i.preheader ]
  %20 = call i32 @strncmp(ptr noundef nonnull %.01319.i, ptr noundef nonnull readonly %18, i64 noundef %19) #17
  %.not15.not.i = icmp eq i32 %20, 0
  br i1 %.not15.not.i, label %hwloc_ps_pidcmd__from_env.exit, label %21

21:                                               ; preds = %.lr.ph.i
  %22 = call i64 @strlen(ptr noundef nonnull dereferenceable(1) %.01319.i) #17
  %23 = getelementptr i8, ptr %.01319.i, i64 %22
  %24 = getelementptr i8, ptr %23, i64 1
  %25 = load i8, ptr %24, align 1, !tbaa !12
  %.not.i = icmp eq i8 %25, 0
  br i1 %.not.i, label %.loopexit, label %.lr.ph.i, !llvm.loop !28

hwloc_ps_pidcmd__from_env.exit:                   ; preds = %.lr.ph.i
  %26 = getelementptr inbounds nuw i8, ptr %0, i64 72
  %27 = call ptr @strncpy(ptr noundef nonnull dereferenceable(1) %26, ptr noundef nonnull dereferenceable(1) %.01319.i, i64 noundef 1024) #15
  %28 = getelementptr inbounds nuw i8, ptr %0, i64 1095
  store i8 0, ptr %28, align 1, !tbaa !12
  br label %.loopexit18

.loopexit:                                        ; preds = %21
  %indvars.iv.next = add nuw nsw i64 %indvars.iv, 1
  %exitcond.not = icmp eq i64 %indvars.iv.next, %wide.trip.count
  br i1 %exitcond.not, label %.loopexit18, label %.lr.ph.i.preheader, !llvm.loop !29

.loopexit18:                                      ; preds = %.loopexit, %12, %hwloc_ps_pidcmd__from_env.exit, %9, %3
  call void @llvm.lifetime.end.p0(i64 65536, ptr nonnull %5) #15
  call void @llvm.lifetime.end.p0(i64 64, ptr nonnull %4) #15
  ret void
}